target datalayout = "e-m:e-p270:32:32-p271:32:32-p272:64:64-i64:64-i128:128-f80:128-n8:16:32:64-S128"
target triple = "x86_64-pc-linux-gnu"

%struct.ValueStruct = type { ptr, i16, i32 }

@sprepTrie = internal global ptr null, align 8
@stderr = external global ptr, align 8
@hashTable = internal global ptr null, align 8
@.str.1 = private unnamed_addr constant [41 x i8] c"Type for codepoint \\U%08X already set!.\0A\00", align 1
@.str.2 = private unnamed_addr constant [41 x i8] c"Could not set the value for code point.\0A\00", align 1
@.str.3 = private unnamed_addr constant [62 x i8] c"trieWord cannot contain value greater than threshold 0x%04X.\0A\00", align 1
@.str.4 = private unnamed_addr constant [68 x i8] c"The second bit in the trie word is not zero while storing a delta.\0A\00", align 1
@mappingDataCapacity = internal global i32 0, align 4
@maxLength = internal global i32 0, align 4
@.str.5 = private unnamed_addr constant [54 x i8] c"Failed to put entries into the hash table. Error: %s\0A\00", align 1

; Function Attrs: nounwind uwtable
define dso_local void @storeMapping(i32 noundef %0, ptr noundef %1, i32 noundef %2, i32 noundef %3, ptr noundef %4) #0 {
  %6 = alloca i32, align 4
  %7 = alloca ptr, align 8
  %8 = alloca i32, align 4
  %9 = alloca i32, align 4
  %10 = alloca ptr, align 8
  %11 = alloca ptr, align 8
  %12 = alloca i16, align 2
  %13 = alloca i16, align 2
  %14 = alloca i16, align 2
  %15 = alloca i16, align 2
  %16 = alloca ptr, align 8
  %17 = alloca i32, align 4
  %18 = alloca i32, align 4
  %19 = alloca i16, align 2
  store i32 %0, ptr %6, align 4, !tbaa !10
  store ptr %1, ptr %7, align 8, !tbaa !16
  store i32 %2, ptr %8, align 4, !tbaa !10
  store i32 %3, ptr %9, align 4, !tbaa !10
  store ptr %4, ptr %10, align 8, !tbaa !18
  call void @llvm.lifetime.start.p0(i64 8, ptr %11) #9
  store ptr null, ptr %11, align 8, !tbaa !19
  call void @llvm.lifetime.start.p0(i64 2, ptr %12) #9
  store i16 0, ptr %12, align 2, !tbaa !21
  call void @llvm.lifetime.start.p0(i64 2, ptr %13) #9
  call void @llvm.lifetime.start.p0(i64 2, ptr %14) #9
  call void @llvm.lifetime.start.p0(i64 2, ptr %15) #9
  store i16 0, ptr %15, align 2, !tbaa !21
  call void @llvm.lifetime.start.p0(i64 8, ptr %16) #9
  store ptr null, ptr %16, align 8, !tbaa !23
  call void @llvm.lifetime.start.p0(i64 4, ptr %17) #9
  store i32 0, ptr %17, align 4, !tbaa !10
  %20 = load ptr, ptr @hashTable, align 8, !tbaa !25
  %21 = icmp eq ptr %20, null
  br i1 %21, label %22, label %27

22:                                               ; preds = %5
  %23 = load ptr, ptr %10, align 8, !tbaa !18
  %24 = call ptr @uhash_open_77(ptr noundef @hashEntry, ptr noundef @compareEntries, ptr noundef null, ptr noundef %23)
  store ptr %24, ptr @hashTable, align 8, !tbaa !25
  %25 = load ptr, ptr @hashTable, align 8, !tbaa !25
  %26 = call ptr @uhash_setValueDeleter_77(ptr noundef %25, ptr noundef @valueDeleter)
  br label %27

27:                                               ; preds = %22, %5
  %28 = load ptr, ptr @sprepTrie, align 8, !tbaa !12
  %29 = load i32, ptr %6, align 4, !tbaa !10
  %30 = call i32 @utrie_get32_77(ptr noundef %28, i32 noundef %29, ptr noundef null)
  store i32 %30, ptr %17, align 4, !tbaa !10
  %31 = load i32, ptr %17, align 4, !tbaa !10
  %32 = icmp ne i32 %31, 0
  br i1 %32, label %33, label %47

33:                                               ; preds = %27
  %34 = load i32, ptr %17, align 4, !tbaa !10
  %35 = sub i32 %34, 65520
  %36 = icmp eq i32 %35, 2
  br i1 %36, label %37, label %42

37:                                               ; preds = %33
  %38 = load i16, ptr %15, align 2, !tbaa !21
  %39 = zext i16 %38 to i32
  %40 = add nsw i32 %39, 1
  %41 = trunc i32 %40 to i16
  store i16 %41, ptr %15, align 2, !tbaa !21
  br label %46

42:                                               ; preds = %33
  %43 = load ptr, ptr @stderr, align 8, !tbaa !14
  %44 = load i32, ptr %6, align 4, !tbaa !10
  %45 = call i32 (ptr, ptr, ...) @fprintf(ptr noundef %43, ptr noundef @.str.1, i32 noundef %44) #9
  call void @exit(i32 noundef 1) #11
  unreachable

46:                                               ; preds = %37
  br label %47

47:                                               ; preds = %46, %27
  store i16 0, ptr %13, align 2, !tbaa !21
  br label %48

48:                                               ; preds = %65, %47
  %49 = load i16, ptr %13, align 2, !tbaa !21
  %50 = sext i16 %49 to i32
  %51 = load i32, ptr %8, align 4, !tbaa !10
  %52 = icmp slt i32 %50, %51
  br i1 %52, label %53, label %68

53:                                               ; preds = %48
  %54 = load ptr, ptr %7, align 8, !tbaa !16
  %55 = load i16, ptr %13, align 2, !tbaa !21
  %56 = sext i16 %55 to i64
  %57 = getelementptr inbounds i32, ptr %54, i64 %56
  %58 = load i32, ptr %57, align 4, !tbaa !10
  %59 = icmp ule i32 %58, 65535
  %60 = select i1 %59, i32 1, i32 2
  %61 = load i16, ptr %12, align 2, !tbaa !21
  %62 = sext i16 %61 to i32
  %63 = add nsw i32 %62, %60
  %64 = trunc i32 %63 to i16
  store i16 %64, ptr %12, align 2, !tbaa !21
  br label %65

65:                                               ; preds = %53
  %66 = load i16, ptr %13, align 2, !tbaa !21
  %67 = add i16 %66, 1
  store i16 %67, ptr %13, align 2, !tbaa !21
  br label %48, !llvm.loop !27

68:                                               ; preds = %48
  %69 = load i16, ptr %12, align 2, !tbaa !21
  %70 = sext i16 %69 to i32
  %71 = icmp eq i32 %70, 0
  br i1 %71, label %72, label %90

72:                                               ; preds = %68
  store i16 -260, ptr %15, align 2, !tbaa !21
  %73 = load i16, ptr %15, align 2, !tbaa !21
  %74 = zext i16 %73 to i32
  %75 = icmp slt i32 %74, 65520
  br i1 %75, label %76, label %87

76:                                               ; preds = %72
  %77 = load ptr, ptr @sprepTrie, align 8, !tbaa !12
  %78 = load i32, ptr %6, align 4, !tbaa !10
  %79 = load i16, ptr %15, align 2, !tbaa !21
  %80 = zext i16 %79 to i32
  %81 = call signext i8 @utrie_set32_77(ptr noundef %77, i32 noundef %78, i32 noundef %80)
  %82 = icmp ne i8 %81, 0
  br i1 %82, label %86, label %83

83:                                               ; preds = %76
  %84 = load ptr, ptr @stderr, align 8, !tbaa !14
  %85 = call i32 (ptr, ptr, ...) @fprintf(ptr noundef %84, ptr noundef @.str.2) #9
  call void @exit(i32 noundef 1) #11
  unreachable

86:                                               ; preds = %76
  store i32 1, ptr %18, align 4
  br label %260

87:                                               ; preds = %72
  %88 = load ptr, ptr @stderr, align 8, !tbaa !14
  %89 = call i32 (ptr, ptr, ...) @fprintf(ptr noundef %88, ptr noundef @.str.3, i32 noundef 65520) #9
  call void @exit(i32 noundef 12) #11
  unreachable

90:                                               ; preds = %68
  %91 = load i16, ptr %12, align 2, !tbaa !21
  %92 = sext i16 %91 to i32
  %93 = icmp eq i32 %92, 1
  br i1 %93, label %94, label %143

94:                                               ; preds = %90
  call void @llvm.lifetime.start.p0(i64 2, ptr %19) #9
  %95 = load i32, ptr %6, align 4, !tbaa !10
  %96 = load ptr, ptr %7, align 8, !tbaa !16
  %97 = getelementptr inbounds i32, ptr %96, i64 0
  %98 = load i32, ptr %97, align 4, !tbaa !10
  %99 = trunc i32 %98 to i16
  %100 = sext i16 %99 to i32
  %101 = sub nsw i32 %95, %100
  %102 = trunc i32 %101 to i16
  store i16 %102, ptr %19, align 2, !tbaa !21
  %103 = load i16, ptr %19, align 2, !tbaa !21
  %104 = sext i16 %103 to i32
  %105 = icmp sge i32 %104, -8192
  br i1 %105, label %106, label %139

106:                                              ; preds = %94
  %107 = load i16, ptr %19, align 2, !tbaa !21
  %108 = sext i16 %107 to i32
  %109 = icmp sle i32 %108, 8191
  br i1 %109, label %110, label %139

110:                                              ; preds = %106
  %111 = load i16, ptr %19, align 2, !tbaa !21
  store i16 %111, ptr %15, align 2, !tbaa !21
  %112 = load i16, ptr %15, align 2, !tbaa !21
  %113 = zext i16 %112 to i32
  %114 = shl i32 %113, 2
  %115 = trunc i32 %114 to i16
  store i16 %115, ptr %15, align 2, !tbaa !21
  %116 = load i16, ptr %15, align 2, !tbaa !21
  %117 = zext i16 %116 to i32
  %118 = and i32 %117, 2
  %119 = icmp ne i32 %118, 0
  br i1 %119, label %120, label %123

120:                                              ; preds = %110
  %121 = load ptr, ptr @stderr, align 8, !tbaa !14
  %122 = call i32 (ptr, ptr, ...) @fprintf(ptr noundef %121, ptr noundef @.str.4) #9
  call void @exit(i32 noundef 5) #11
  unreachable

123:                                              ; preds = %110
  %124 = load i16, ptr %15, align 2, !tbaa !21
  %125 = zext i16 %124 to i32
  %126 = icmp slt i32 %125, 65520
  br i1 %126, label %127, label %138

127:                                              ; preds = %123
  %128 = load ptr, ptr @sprepTrie, align 8, !tbaa !12
  %129 = load i32, ptr %6, align 4, !tbaa !10
  %130 = load i16, ptr %15, align 2, !tbaa !21
  %131 = zext i16 %130 to i32
  %132 = call signext i8 @utrie_set32_77(ptr noundef %128, i32 noundef %129, i32 noundef %131)
  %133 = icmp ne i8 %132, 0
  br i1 %133, label %137, label %134

134:                                              ; preds = %127
  %135 = load ptr, ptr @stderr, align 8, !tbaa !14
  %136 = call i32 (ptr, ptr, ...) @fprintf(ptr noundef %135, ptr noundef @.str.2) #9
  call void @exit(i32 noundef 1) #11
  unreachable

137:                                              ; preds = %127
  store i32 1, ptr %18, align 4
  br label %140

138:                                              ; preds = %123
  br label %139

139:                                              ; preds = %138, %106, %94
  store i32 0, ptr %18, align 4
  br label %140

140:                                              ; preds = %139, %137
  call void @llvm.lifetime.end.p0(i64 2, ptr %19) #9
  %141 = load i32, ptr %18, align 4
  switch i32 %141, label %260 [
    i32 0, label %142
  ]

142:                                              ; preds = %140
  br label %143

143:                                              ; preds = %142, %90
  %144 = load i16, ptr %12, align 2, !tbaa !21
  %145 = sext i16 %144 to i32
  %146 = add nsw i32 %145, 1
  %147 = sext i32 %146 to i64
  %148 = call noalias ptr @uprv_calloc_77(i64 noundef %147, i64 noundef 2) #10
  store ptr %148, ptr %11, align 8, !tbaa !19
  store i16 0, ptr %13, align 2, !tbaa !21
  store i16 0, ptr %14, align 2, !tbaa !21
  br label %149

149:                                              ; preds = %204, %143
  %150 = load i16, ptr %13, align 2, !tbaa !21
  %151 = sext i16 %150 to i32
  %152 = load i32, ptr %8, align 4, !tbaa !10
  %153 = icmp slt i32 %151, %152
  br i1 %153, label %154, label %207

154:                                              ; preds = %149
  br label %155

155:                                              ; preds = %154
  %156 = load ptr, ptr %7, align 8, !tbaa !16
  %157 = load i16, ptr %13, align 2, !tbaa !21
  %158 = sext i16 %157 to i64
  %159 = getelementptr inbounds i32, ptr %156, i64 %158
  %160 = load i32, ptr %159, align 4, !tbaa !10
  %161 = icmp ule i32 %160, 65535
  br i1 %161, label %162, label %174

162:                                              ; preds = %155
  %163 = load ptr, ptr %7, align 8, !tbaa !16
  %164 = load i16, ptr %13, align 2, !tbaa !21
  %165 = sext i16 %164 to i64
  %166 = getelementptr inbounds i32, ptr %163, i64 %165
  %167 = load i32, ptr %166, align 4, !tbaa !10
  %168 = trunc i32 %167 to i16
  %169 = load ptr, ptr %11, align 8, !tbaa !19
  %170 = load i16, ptr %14, align 2, !tbaa !21
  %171 = add i16 %170, 1
  store i16 %171, ptr %14, align 2, !tbaa !21
  %172 = sext i16 %170 to i64
  %173 = getelementptr inbounds i16, ptr %169, i64 %172
  store i16 %168, ptr %173, align 2, !tbaa !21
  br label %201

174:                                              ; preds = %155
  %175 = load ptr, ptr %7, align 8, !tbaa !16
  %176 = load i16, ptr %13, align 2, !tbaa !21
  %177 = sext i16 %176 to i64
  %178 = getelementptr inbounds i32, ptr %175, i64 %177
  %179 = load i32, ptr %178, align 4, !tbaa !10
  %180 = lshr i32 %179, 10
  %181 = add i32 %180, 55232
  %182 = trunc i32 %181 to i16
  %183 = load ptr, ptr %11, align 8, !tbaa !19
  %184 = load i16, ptr %14, align 2, !tbaa !21
  %185 = add i16 %184, 1
  store i16 %185, ptr %14, align 2, !tbaa !21
  %186 = sext i16 %184 to i64
  %187 = getelementptr inbounds i16, ptr %183, i64 %186
  store i16 %182, ptr %187, align 2, !tbaa !21
  %188 = load ptr, ptr %7, align 8, !tbaa !16
  %189 = load i16, ptr %13, align 2, !tbaa !21
  %190 = sext i16 %189 to i64
  %191 = getelementptr inbounds i32, ptr %188, i64 %190
  %192 = load i32, ptr %191, align 4, !tbaa !10
  %193 = and i32 %192, 1023
  %194 = or i32 %193, 56320
  %195 = trunc i32 %194 to i16
  %196 = load ptr, ptr %11, align 8, !tbaa !19
  %197 = load i16, ptr %14, align 2, !tbaa !21
  %198 = add i16 %197, 1
  store i16 %198, ptr %14, align 2, !tbaa !21
  %199 = sext i16 %197 to i64
  %200 = getelementptr inbounds i16, ptr %196, i64 %199
  store i16 %195, ptr %200, align 2, !tbaa !21
  br label %201

201:                                              ; preds = %174, %162
  br label %202

202:                                              ; preds = %201
  br label %203

203:                                              ; preds = %202
  br label %204

204:                                              ; preds = %203
  %205 = load i16, ptr %13, align 2, !tbaa !21
  %206 = add i16 %205, 1
  store i16 %206, ptr %13, align 2, !tbaa !21
  br label %149, !llvm.loop !29

207:                                              ; preds = %149
  %208 = call noalias ptr @uprv_malloc_77(i64 noundef 16) #12
  store ptr %208, ptr %16, align 8, !tbaa !23
  %209 = load ptr, ptr %11, align 8, !tbaa !19
  %210 = load ptr, ptr %16, align 8, !tbaa !23
  %211 = getelementptr inbounds nuw %struct.ValueStruct, ptr %210, i32 0, i32 0
  store ptr %209, ptr %211, align 8, !tbaa !30
  %212 = load i32, ptr %9, align 4, !tbaa !10
  %213 = load ptr, ptr %16, align 8, !tbaa !23
  %214 = getelementptr inbounds nuw %struct.ValueStruct, ptr %213, i32 0, i32 2
  store i32 %212, ptr %214, align 4, !tbaa !32
  %215 = load i16, ptr %12, align 2, !tbaa !21
  %216 = load ptr, ptr %16, align 8, !tbaa !23
  %217 = getelementptr inbounds nuw %struct.ValueStruct, ptr %216, i32 0, i32 1
  store i16 %215, ptr %217, align 8, !tbaa !33
  %218 = load ptr, ptr %16, align 8, !tbaa !23
  %219 = getelementptr inbounds nuw %struct.ValueStruct, ptr %218, i32 0, i32 1
  %220 = load i16, ptr %219, align 8, !tbaa !33
  %221 = sext i16 %220 to i32
  %222 = icmp sgt i32 %221, 3
  br i1 %222, label %223, label %226

223:                                              ; preds = %207
  %224 = load i32, ptr @mappingDataCapacity, align 4, !tbaa !10
  %225 = add nsw i32 %224, 1
  store i32 %225, ptr @mappingDataCapacity, align 4, !tbaa !10
  br label %226

226:                                              ; preds = %223, %207
  %227 = load i32, ptr @maxLength, align 4, !tbaa !10
  %228 = load ptr, ptr %16, align 8, !tbaa !23
  %229 = getelementptr inbounds nuw %struct.ValueStruct, ptr %228, i32 0, i32 1
  %230 = load i16, ptr %229, align 8, !tbaa !33
  %231 = sext i16 %230 to i32
  %232 = icmp slt i32 %227, %231
  br i1 %232, label %233, label %238

233:                                              ; preds = %226
  %234 = load ptr, ptr %16, align 8, !tbaa !23
  %235 = getelementptr inbounds nuw %struct.ValueStruct, ptr %234, i32 0, i32 1
  %236 = load i16, ptr %235, align 8, !tbaa !33
  %237 = sext i16 %236 to i32
  store i32 %237, ptr @maxLength, align 4, !tbaa !10
  br label %238

238:                                              ; preds = %233, %226
  %239 = load ptr, ptr @hashTable, align 8, !tbaa !25
  %240 = load i32, ptr %6, align 4, !tbaa !10
  %241 = load ptr, ptr %16, align 8, !tbaa !23
  %242 = load ptr, ptr %10, align 8, !tbaa !18
  %243 = call ptr @uhash_iput_77(ptr noundef %239, i32 noundef %240, ptr noundef %241, ptr noundef %242)
  %244 = load i16, ptr %12, align 2, !tbaa !21
  %245 = sext i16 %244 to i32
  %246 = load i32, ptr @mappingDataCapacity, align 4, !tbaa !10
  %247 = add nsw i32 %246, %245
  store i32 %247, ptr @mappingDataCapacity, align 4, !tbaa !10
  %248 = load ptr, ptr %10, align 8, !tbaa !18
  %249 = load i32, ptr %248, align 4, !tbaa !10
  %250 = icmp sgt i32 %249, 0
  br i1 %250, label %251, label %259

251:                                              ; preds = %238
  %252 = load ptr, ptr @stderr, align 8, !tbaa !14
  %253 = load ptr, ptr %10, align 8, !tbaa !18
  %254 = load i32, ptr %253, align 4, !tbaa !10
  %255 = call ptr @u_errorName_77(i32 noundef %254)
  %256 = call i32 (ptr, ptr, ...) @fprintf(ptr noundef %252, ptr noundef @.str.5, ptr noundef %255) #9
  %257 = load ptr, ptr %10, align 8, !tbaa !18
  %258 = load i32, ptr %257, align 4, !tbaa !10
  call void @exit(i32 noundef %258) #11
  unreachable

259:                                              ; preds = %238
  store i32 0, ptr %18, align 4
  br label %260

260:                                              ; preds = %259, %140, %86
  call void @llvm.lifetime.end.p0(i64 4, ptr %17) #9
  call void @llvm.lifetime.end.p0(i64 8, ptr %16) #9
  call void @llvm.lifetime.end.p0(i64 2, ptr %15) #9
  call void @llvm.lifetime.end.p0(i64 2, ptr %14) #9
  call void @llvm.lifetime.end.p0(i64 2, ptr %13) #9
  call void @llvm.lifetime.end.p0(i64 2, ptr %12) #9
  call void @llvm.lifetime.end.p0(i64 8, ptr %11) #9
  %261 = load i32, ptr %18, align 4
  switch i32 %261, label %263 [
    i32 0, label %262
    i32 1, label %262
  ]

262:                                              ; preds = %260, %260
  ret void

263:                                              ; preds = %260
  unreachable
}