; Function Attrs: nounwind uwtable
define dso_local void @storeMapping(i32 noundef %0, ptr noundef readonly captures(none) %1, i32 noundef %2, i32 noundef %3, ptr noundef %4) local_unnamed_addr #0 {
  %6 = load ptr, ptr @hashTable, align 8, !tbaa !14
  %7 = icmp eq ptr %6, null
  br i1 %7, label %8, label %11

8:                                                ; preds = %5
  %9 = tail call ptr @uhash_open_77(ptr noundef nonnull @hashEntry, ptr noundef nonnull @compareEntries, ptr noundef null, ptr noundef %4) #13
  store ptr %9, ptr @hashTable, align 8, !tbaa !14
  %10 = tail call ptr @uhash_setValueDeleter_77(ptr noundef %9, ptr noundef nonnull @valueDeleter) #13
  br label %11

11:                                               ; preds = %8, %5
  %12 = load ptr, ptr @sprepTrie, align 8, !tbaa !9
  %13 = tail call i32 @utrie_get32_77(ptr noundef %12, i32 noundef %0, ptr noundef null) #13
  switch i32 %13, label %14 [
    i32 0, label %17
    i32 65522, label %17
  ]

14:                                               ; preds = %11
  %15 = load ptr, ptr @stderr, align 8, !tbaa !12
  %16 = tail call i32 (ptr, ptr, ...) @fprintf(ptr noundef %15, ptr noundef nonnull @.str.1, i32 noundef %0) #17
  tail call void @exit(i32 noundef 1) #16
  unreachable

17:                                               ; preds = %11, %11
  %18 = icmp sgt i32 %2, 0
  br i1 %18, label %.lr.ph, label %._crit_edge.thread

.lr.ph:                                           ; preds = %17, %.lr.ph
  %.06478 = phi i16 [ %25, %.lr.ph ], [ 0, %17 ]
  %.06677 = phi i16 [ %24, %.lr.ph ], [ 0, %17 ]
  %19 = sext i16 %.06478 to i64
  %20 = getelementptr inbounds i32, ptr %1, i64 %19
  %21 = load i32, ptr %20, align 4, !tbaa !7
  %22 = icmp ult i32 %21, 65536
  %23 = select i1 %22, i16 1, i16 2
  %24 = add i16 %23, %.06677
  %25 = add i16 %.06478, 1
  %26 = sext i16 %25 to i32
  %27 = icmp sgt i32 %2, %26
  br i1 %27, label %.lr.ph, label %._crit_edge, !llvm.loop !16

._crit_edge:                                      ; preds = %.lr.ph
  %28 = sext i16 %24 to i32
  switch i16 %24, label %.lr.ph82.preheader [
    i16 0, label %._crit_edge.thread
    i16 1, label %34
  ]

._crit_edge.thread:                               ; preds = %17, %._crit_edge
  %29 = load ptr, ptr @sprepTrie, align 8, !tbaa !9
  %30 = tail call signext i8 @utrie_set32_77(ptr noundef %29, i32 noundef %0, i32 noundef 65276) #13
  %.not76 = icmp eq i8 %30, 0
  br i1 %.not76, label %31, label %.critedge

31:                                               ; preds = %._crit_edge.thread
  %32 = load ptr, ptr @stderr, align 8, !tbaa !12
  %33 = tail call i64 @fwrite(ptr nonnull @.str.2, i64 40, i64 1, ptr %32) #15
  tail call void @exit(i32 noundef 1) #16
  unreachable

34:                                               ; preds = %._crit_edge
  %35 = load i32, ptr %1, align 4, !tbaa !7
  %36 = sub i32 %0, %35
  %sext = shl i32 %36, 16
  %37 = ashr exact i32 %sext, 16
  %38 = add nsw i32 %37, 8192
  %or.cond = icmp ult i32 %38, 16384
  br i1 %or.cond, label %39, label %.lr.ph82.preheader

39:                                               ; preds = %34
  %40 = shl i32 %36, 2
  %41 = and i32 %40, 65532
  %42 = icmp samesign ult i32 %41, 65520
  br i1 %42, label %43, label %.lr.ph82.preheader

43:                                               ; preds = %39
  %44 = load ptr, ptr @sprepTrie, align 8, !tbaa !9
  %45 = tail call signext i8 @utrie_set32_77(ptr noundef %44, i32 noundef %0, i32 noundef %41) #13
  %.not75 = icmp eq i8 %45, 0
  br i1 %.not75, label %46, label %.critedge

46:                                               ; preds = %43
  %47 = load ptr, ptr @stderr, align 8, !tbaa !12
  %48 = tail call i64 @fwrite(ptr nonnull @.str.2, i64 40, i64 1, ptr %47) #15
  tail call void @exit(i32 noundef 1) #16
  unreachable

.lr.ph82.preheader:                               ; preds = %._crit_edge, %34, %39
  %49 = add nsw i32 %28, 1
  %50 = sext i32 %49 to i64
  %51 = tail call noalias ptr @uprv_calloc_77(i64 noundef %50, i64 noundef 2) #14
  br label %.lr.ph82

.lr.ph82:                                         ; preds = %.lr.ph82.preheader, %68
  %.06380 = phi i16 [ %69, %68 ], [ 0, %.lr.ph82.preheader ]
  %.16579 = phi i16 [ %72, %68 ], [ 0, %.lr.ph82.preheader ]
  %52 = sext i16 %.16579 to i64
  %53 = getelementptr inbounds i32, ptr %1, i64 %52
  %54 = load i32, ptr %53, align 4, !tbaa !7
  %55 = icmp ult i32 %54, 65536
  br i1 %55, label %56, label %58

56:                                               ; preds = %.lr.ph82
  %57 = trunc nuw i32 %54 to i16
  br label %68

58:                                               ; preds = %.lr.ph82
  %59 = lshr i32 %54, 10
  %60 = trunc i32 %59 to i16
  %61 = add i16 %60, -10304
  %62 = add i16 %.06380, 1
  %63 = sext i16 %.06380 to i64
  %64 = getelementptr inbounds i16, ptr %51, i64 %63
  store i16 %61, ptr %64, align 2, !tbaa !18
  %65 = trunc i32 %54 to i16
  %66 = and i16 %65, 1023
  %67 = or disjoint i16 %66, -9216
  br label %68

68:                                               ; preds = %56, %58
  %.sink87 = phi i16 [ 1, %56 ], [ 2, %58 ]
  %.06380.sink = phi i16 [ %.06380, %56 ], [ %62, %58 ]
  %.sink = phi i16 [ %57, %56 ], [ %67, %58 ]
  %69 = add i16 %.06380, %.sink87
  %70 = sext i16 %.06380.sink to i64
  %71 = getelementptr inbounds i16, ptr %51, i64 %70
  store i16 %.sink, ptr %71, align 2, !tbaa !18
  %72 = add i16 %.16579, 1
  %73 = sext i16 %72 to i32
  %74 = icmp sgt i32 %2, %73
  br i1 %74, label %.lr.ph82, label %._crit_edge83, !llvm.loop !20

._crit_edge83:                                    ; preds = %68
  %75 = tail call noalias dereferenceable_or_null(16) ptr @uprv_malloc_77(i64 noundef 16) #18
  store ptr %51, ptr %75, align 8, !tbaa !21
  %76 = getelementptr inbounds nuw i8, ptr %75, i64 12
  store i32 %3, ptr %76, align 4, !tbaa !24
  %77 = getelementptr inbounds nuw i8, ptr %75, i64 8
  store i16 %24, ptr %77, align 8, !tbaa !25
  %78 = icmp sgt i16 %24, 3
  br i1 %78, label %79, label %82

79:                                               ; preds = %._crit_edge83
  %80 = load i32, ptr @mappingDataCapacity, align 4, !tbaa !7
  %81 = add nsw i32 %80, 1
  store i32 %81, ptr @mappingDataCapacity, align 4, !tbaa !7
  br label %82

82:                                               ; preds = %79, %._crit_edge83
  %83 = load i32, ptr @maxLength, align 4, !tbaa !7
  %84 = icmp slt i32 %83, %28
  br i1 %84, label %85, label %86

85:                                               ; preds = %82
  store i32 %28, ptr @maxLength, align 4, !tbaa !7
  br label %86

86:                                               ; preds = %85, %82
  %87 = load ptr, ptr @hashTable, align 8, !tbaa !14
  %88 = tail call ptr @uhash_iput_77(ptr noundef %87, i32 noundef %0, ptr noundef nonnull %75, ptr noundef %4) #13
  %89 = load i32, ptr @mappingDataCapacity, align 4, !tbaa !7
  %90 = add nsw i32 %89, %28
  store i32 %90, ptr @mappingDataCapacity, align 4, !tbaa !7
  %91 = load i32, ptr %4, align 4, !tbaa !7
  %92 = icmp sgt i32 %91, 0
  br i1 %92, label %93, label %.critedge

93:                                               ; preds = %86
  %94 = load ptr, ptr @stderr, align 8, !tbaa !12
  %95 = tail call ptr @u_errorName_77(i32 noundef %91) #13
  %96 = tail call i32 (ptr, ptr, ...) @fprintf(ptr noundef %94, ptr noundef nonnull @.str.5, ptr noundef %95) #17
  %97 = load i32, ptr %4, align 4, !tbaa !7
  tail call void @exit(i32 noundef %97) #19
  unreachable

.critedge:                                        ; preds = %43, %86, %._crit_edge.thread
  ret void
}